target datalayout = "e-m:e-p270:32:32-p271:32:32-p272:64:64-i64:64-i128:128-f80:128-n8:16:32:64-S128"
target triple = "x86_64-pc-linux-gnu"

%struct.png_struct_def = type { [1 x %struct.__jmp_buf_tag], ptr, ptr, i64, ptr, ptr, ptr, ptr, ptr, ptr, ptr, ptr, i8, i8, i32, i32, i32, i32, %struct.z_stream_s, i32, i32, i32, i32, i64, i32, i32, i32, ptr, ptr, i64, i32, i32, ptr, i16, i32, i16, i8, i8, i8, i8, i8, i8, i8, i8, i8, i8, i8, i8, i8, i8, i16, i8, i32, %struct.png_color_16_struct, %struct.png_color_16_struct, i32, i32, ptr, ptr, ptr, ptr, ptr, ptr, %struct.png_color_8_struct, %struct.png_color_8_struct, ptr, %struct.png_color_16_struct, ptr, ptr, ptr, ptr, ptr, ptr, ptr, ptr, ptr, i32, i32, i64, i64, i64, i64, i32, i32, ptr, ptr, [29 x i8], i32, ptr, ptr, i32, i32, ptr, i8, i8, i16, i16, ptr, i32, i8, ptr, ptr, ptr, ptr, ptr, ptr, ptr, i8, i32, i32, i32, i64, %struct.png_unknown_chunk_t, i64, ptr, i64, i32, i32, ptr, [4 x ptr], %struct.png_colorspace }
%struct.__jmp_buf_tag = type { [8 x i64], i32, %struct.__sigset_t }
%struct.__sigset_t = type { [16 x i64] }
%struct.z_stream_s = type { ptr, i32, i64, ptr, i32, i64, ptr, ptr, ptr, ptr, ptr, i32, i64, i64 }
%struct.png_color_8_struct = type { i8, i8, i8, i8, i8 }
%struct.png_color_16_struct = type { i8, i16, i16, i16, i16 }
%struct.png_unknown_chunk_t = type { [5 x i8], ptr, i64, i8 }
%struct.png_colorspace = type { i32, %struct.png_xy, %struct.png_XYZ, i16, i16 }
%struct.png_xy = type { i32, i32, i32, i32, i32, i32, i32, i32 }
%struct.png_XYZ = type { i32, i32, i32, i32, i32, i32, i32, i32, i32 }
%struct.png_info_def = type { i32, i32, i32, i64, ptr, i16, i16, i8, i8, i8, i8, i8, i8, i8, i8, [8 x i8], %struct.png_colorspace, ptr, ptr, i32, i32, i32, ptr, %struct.png_time_struct, %struct.png_color_8_struct, ptr, %struct.png_color_16_struct, %struct.png_color_16_struct, i32, i32, i8, i32, i32, i8, ptr, ptr, i32, i32, ptr, ptr, i8, i8, i32, ptr, i32, ptr, i32, i8, ptr, ptr, ptr }
%struct.png_time_struct = type { i16, i8, i8, i8, i8, i8 }

@.str.5 = private unnamed_addr constant [13 x i8] c"out of place\00", align 1
@.str.6 = private unnamed_addr constant [8 x i8] c"invalid\00", align 1
@.str.7 = private unnamed_addr constant [13 x i8] c"missing IHDR\00", align 1
@.str.8 = private unnamed_addr constant [10 x i8] c"duplicate\00", align 1

; Function Attrs: nounwind uwtable
define hidden void @png_crc_read(ptr noalias noundef %0, ptr noundef %1, i32 noundef %2) #0 {
  %4 = alloca ptr, align 8
  %5 = alloca ptr, align 8
  %6 = alloca i32, align 4
  store ptr %0, ptr %4, align 8
  store ptr %1, ptr %5, align 8
  store i32 %2, ptr %6, align 4
  %7 = load ptr, ptr %4, align 8
  %8 = icmp eq ptr %7, null
  br i1 %8, label %9, label %10

9:                                                ; preds = %3
  br label %19

10:                                               ; preds = %3
  %11 = load ptr, ptr %4, align 8
  %12 = load ptr, ptr %5, align 8
  %13 = load i32, ptr %6, align 4
  %14 = zext i32 %13 to i64
  call void @png_read_data(ptr noundef %11, ptr noundef %12, i64 noundef %14)
  %15 = load ptr, ptr %4, align 8
  %16 = load ptr, ptr %5, align 8
  %17 = load i32, ptr %6, align 4
  %18 = zext i32 %17 to i64
  call void @png_calculate_crc(ptr noundef %15, ptr noundef %16, i64 noundef %18)
  br label %19

19:                                               ; preds = %10, %9
  ret void
}

; Function Attrs: nounwind uwtable
define hidden void @png_handle_sBIT(ptr noalias noundef %0, ptr noalias noundef %1, i32 noundef %2) #0 {
  %4 = alloca ptr, align 8
  %5 = alloca ptr, align 8
  %6 = alloca i32, align 4
  %7 = alloca i32, align 4
  %8 = alloca i32, align 4
  %9 = alloca i8, align 1
  %10 = alloca [4 x i8], align 1
  store ptr %0, ptr %4, align 8
  store ptr %1, ptr %5, align 8
  store i32 %2, ptr %6, align 4
  %11 = load ptr, ptr %4, align 8
  %12 = getelementptr inbounds %struct.png_struct_def, ptr %11, i32 0, i32 14
  %13 = load i32, ptr %12, align 4
  %14 = and i32 %13, 1
  %15 = icmp eq i32 %14, 0
  br i1 %15, label %16, label %18

16:                                               ; preds = %3
  %17 = load ptr, ptr %4, align 8
  call void @png_chunk_error(ptr noundef %17, ptr noundef @.str.7) #6
  unreachable

18:                                               ; preds = %3
  %19 = load ptr, ptr %4, align 8
  %20 = getelementptr inbounds %struct.png_struct_def, ptr %19, i32 0, i32 14
  %21 = load i32, ptr %20, align 4
  %22 = and i32 %21, 6
  %23 = icmp ne i32 %22, 0
  br i1 %23, label %24, label %29

24:                                               ; preds = %18
  %25 = load ptr, ptr %4, align 8
  %26 = load i32, ptr %6, align 4
  %27 = call i32 @png_crc_finish(ptr noundef %25, i32 noundef %26)
  %28 = load ptr, ptr %4, align 8
  call void @png_chunk_benign_error(ptr noundef %28, ptr noundef @.str.5)
  br label %170

29:                                               ; preds = %18
  br label %30

30:                                               ; preds = %29
  %31 = load ptr, ptr %5, align 8
  %32 = icmp ne ptr %31, null
  br i1 %32, label %33, label %44

33:                                               ; preds = %30
  %34 = load ptr, ptr %5, align 8
  %35 = getelementptr inbounds %struct.png_info_def, ptr %34, i32 0, i32 2
  %36 = load i32, ptr %35, align 8
  %37 = and i32 %36, 2
  %38 = icmp ne i32 %37, 0
  br i1 %38, label %39, label %44

39:                                               ; preds = %33
  %40 = load ptr, ptr %4, align 8
  %41 = load i32, ptr %6, align 4
  %42 = call i32 @png_crc_finish(ptr noundef %40, i32 noundef %41)
  %43 = load ptr, ptr %4, align 8
  call void @png_chunk_benign_error(ptr noundef %43, ptr noundef @.str.8)
  br label %170

44:                                               ; preds = %33, %30
  %45 = load ptr, ptr %4, align 8
  %46 = getelementptr inbounds %struct.png_struct_def, ptr %45, i32 0, i32 41
  %47 = load i8, ptr %46, align 1
  %48 = zext i8 %47 to i32
  %49 = icmp eq i32 %48, 3
  br i1 %49, label %50, label %51

50:                                               ; preds = %44
  store i32 3, ptr %7, align 4
  store i8 8, ptr %9, align 1
  br label %59

51:                                               ; preds = %44
  %52 = load ptr, ptr %4, align 8
  %53 = getelementptr inbounds %struct.png_struct_def, ptr %52, i32 0, i32 45
  %54 = load i8, ptr %53, align 1
  %55 = zext i8 %54 to i32
  store i32 %55, ptr %7, align 4
  %56 = load ptr, ptr %4, align 8
  %57 = getelementptr inbounds %struct.png_struct_def, ptr %56, i32 0, i32 42
  %58 = load i8, ptr %57, align 8
  store i8 %58, ptr %9, align 1
  br label %59

59:                                               ; preds = %51, %50
  %60 = load i32, ptr %6, align 4
  %61 = load i32, ptr %7, align 4
  %62 = icmp ne i32 %60, %61
  br i1 %62, label %66, label %63

63:                                               ; preds = %59
  %64 = load i32, ptr %6, align 4
  %65 = icmp ugt i32 %64, 4
  br i1 %65, label %66, label %71

66:                                               ; preds = %63, %59
  %67 = load ptr, ptr %4, align 8
  call void @png_chunk_benign_error(ptr noundef %67, ptr noundef @.str.6)
  %68 = load ptr, ptr %4, align 8
  %69 = load i32, ptr %6, align 4
  %70 = call i32 @png_crc_finish(ptr noundef %68, i32 noundef %69)
  br label %170

71:                                               ; preds = %63
  %72 = load i8, ptr %9, align 1
  %73 = getelementptr inbounds [4 x i8], ptr %10, i64 0, i64 3
  store i8 %72, ptr %73, align 1
  %74 = getelementptr inbounds [4 x i8], ptr %10, i64 0, i64 2
  store i8 %72, ptr %74, align 1
  %75 = getelementptr inbounds [4 x i8], ptr %10, i64 0, i64 1
  store i8 %72, ptr %75, align 1
  %76 = getelementptr inbounds [4 x i8], ptr %10, i64 0, i64 0
  store i8 %72, ptr %76, align 1
  %77 = load ptr, ptr %4, align 8
  %78 = getelementptr inbounds [4 x i8], ptr %10, i64 0, i64 0
  %79 = load i32, ptr %7, align 4
  call void @png_crc_read(ptr noundef %77, ptr noundef %78, i32 noundef %79)
  %80 = load ptr, ptr %4, align 8
  %81 = call i32 @png_crc_finish(ptr noundef %80, i32 noundef 0)
  %82 = icmp ne i32 %81, 0
  br i1 %82, label %83, label %84

83:                                               ; preds = %71
  br label %170

84:                                               ; preds = %71
  store i32 0, ptr %8, align 4
  br label %85

85:                                               ; preds = %108, %84
  %86 = load i32, ptr %8, align 4
  %87 = load i32, ptr %7, align 4
  %88 = icmp ult i32 %86, %87
  br i1 %88, label %89, label %111

89:                                               ; preds = %85
  %90 = load i32, ptr %8, align 4
  %91 = zext i32 %90 to i64
  %92 = getelementptr inbounds [4 x i8], ptr %10, i64 0, i64 %91
  %93 = load i8, ptr %92, align 1
  %94 = zext i8 %93 to i32
  %95 = icmp eq i32 %94, 0
  br i1 %95, label %105, label %96

96:                                               ; preds = %89
  %97 = load i32, ptr %8, align 4
  %98 = zext i32 %97 to i64
  %99 = getelementptr inbounds [4 x i8], ptr %10, i64 0, i64 %98
  %100 = load i8, ptr %99, align 1
  %101 = zext i8 %100 to i32
  %102 = load i8, ptr %9, align 1
  %103 = zext i8 %102 to i32
  %104 = icmp sgt i32 %101, %103
  br i1 %104, label %105, label %107

105:                                              ; preds = %96, %89
  %106 = load ptr, ptr %4, align 8
  call void @png_chunk_benign_error(ptr noundef %106, ptr noundef @.str.6)
  br label %170

107:                                              ; preds = %96
  br label %108

108:                                              ; preds = %107
  %109 = load i32, ptr %8, align 4
  %110 = add i32 %109, 1
  store i32 %110, ptr %8, align 4
  br label %85, !llvm.loop !10

111:                                              ; preds = %85
  %112 = load ptr, ptr %4, align 8
  %113 = getelementptr inbounds %struct.png_struct_def, ptr %112, i32 0, i32 41
  %114 = load i8, ptr %113, align 1
  %115 = zext i8 %114 to i32
  %116 = and i32 %115, 2
  %117 = icmp ne i32 %116, 0
  br i1 %117, label %118, label %139

118:                                              ; preds = %111
  %119 = getelementptr inbounds [4 x i8], ptr %10, i64 0, i64 0
  %120 = load i8, ptr %119, align 1
  %121 = load ptr, ptr %4, align 8
  %122 = getelementptr inbounds %struct.png_struct_def, ptr %121, i32 0, i32 63
  %123 = getelementptr inbounds %struct.png_color_8_struct, ptr %122, i32 0, i32 0
  store i8 %120, ptr %123, align 8
  %124 = getelementptr inbounds [4 x i8], ptr %10, i64 0, i64 1
  %125 = load i8, ptr %124, align 1
  %126 = load ptr, ptr %4, align 8
  %127 = getelementptr inbounds %struct.png_struct_def, ptr %126, i32 0, i32 63
  %128 = getelementptr inbounds %struct.png_color_8_struct, ptr %127, i32 0, i32 1
  store i8 %125, ptr %128, align 1
  %129 = getelementptr inbounds [4 x i8], ptr %10, i64 0, i64 2
  %130 = load i8, ptr %129, align 1
  %131 = load ptr, ptr %4, align 8
  %132 = getelementptr inbounds %struct.png_struct_def, ptr %131, i32 0, i32 63
  %133 = getelementptr inbounds %struct.png_color_8_struct, ptr %132, i32 0, i32 2
  store i8 %130, ptr %133, align 2
  %134 = getelementptr inbounds [4 x i8], ptr %10, i64 0, i64 3
  %135 = load i8, ptr %134, align 1
  %136 = load ptr, ptr %4, align 8
  %137 = getelementptr inbounds %struct.png_struct_def, ptr %136, i32 0, i32 63
  %138 = getelementptr inbounds %struct.png_color_8_struct, ptr %137, i32 0, i32 4
  store i8 %135, ptr %138, align 4
  br label %165

139:                                              ; preds = %111
  %140 = getelementptr inbounds [4 x i8], ptr %10, i64 0, i64 0
  %141 = load i8, ptr %140, align 1
  %142 = load ptr, ptr %4, align 8
  %143 = getelementptr inbounds %struct.png_struct_def, ptr %142, i32 0, i32 63
  %144 = getelementptr inbounds %struct.png_color_8_struct, ptr %143, i32 0, i32 3
  store i8 %141, ptr %144, align 1
  %145 = getelementptr inbounds [4 x i8], ptr %10, i64 0, i64 0
  %146 = load i8, ptr %145, align 1
  %147 = load ptr, ptr %4, align 8
  %148 = getelementptr inbounds %struct.png_struct_def, ptr %147, i32 0, i32 63
  %149 = getelementptr inbounds %struct.png_color_8_struct, ptr %148, i32 0, i32 0
  store i8 %146, ptr %149, align 8
  %150 = getelementptr inbounds [4 x i8], ptr %10, i64 0, i64 0
  %151 = load i8, ptr %150, align 1
  %152 = load ptr, ptr %4, align 8
  %153 = getelementptr inbounds %struct.png_struct_def, ptr %152, i32 0, i32 63
  %154 = getelementptr inbounds %struct.png_color_8_struct, ptr %153, i32 0, i32 1
  store i8 %151, ptr %154, align 1
  %155 = getelementptr inbounds [4 x i8], ptr %10, i64 0, i64 0
  %156 = load i8, ptr %155, align 1
  %157 = load ptr, ptr %4, align 8
  %158 = getelementptr inbounds %struct.png_struct_def, ptr %157, i32 0, i32 63
  %159 = getelementptr inbounds %struct.png_color_8_struct, ptr %158, i32 0, i32 2
  store i8 %156, ptr %159, align 2
  %160 = getelementptr inbounds [4 x i8], ptr %10, i64 0, i64 1
  %161 = load i8, ptr %160, align 1
  %162 = load ptr, ptr %4, align 8
  %163 = getelementptr inbounds %struct.png_struct_def, ptr %162, i32 0, i32 63
  %164 = getelementptr inbounds %struct.png_color_8_struct, ptr %163, i32 0, i32 4
  store i8 %161, ptr %164, align 4
  br label %165

165:                                              ; preds = %139, %118
  %166 = load ptr, ptr %4, align 8
  %167 = load ptr, ptr %5, align 8
  %168 = load ptr, ptr %4, align 8
  %169 = getelementptr inbounds %struct.png_struct_def, ptr %168, i32 0, i32 63
  call void @png_set_sBIT(ptr noundef %166, ptr noundef %167, ptr noundef %169)
  br label %170

170:                                              ; preds = %165, %105, %83, %66, %39, %24
  ret void
}