; Function Attrs: nounwind uwtable
define hidden void @png_handle_sBIT(ptr noalias noundef %0, ptr noalias noundef %1, i32 noundef %2) local_unnamed_addr #0 {
  %4 = alloca [4 x i8], align 1
  %5 = getelementptr inbounds i8, ptr %0, i64 292
  %6 = load i32, ptr %5, align 4
  %7 = and i32 %6, 1
  %8 = icmp eq i32 %7, 0
  br i1 %8, label %9, label %10

9:                                                ; preds = %3
  tail call void @png_chunk_error(ptr noundef nonnull %0, ptr noundef nonnull @.str.7) #11
  unreachable

10:                                               ; preds = %3
  %11 = and i32 %6, 6
  %.not = icmp eq i32 %11, 0
  br i1 %.not, label %14, label %12

12:                                               ; preds = %10
  %13 = tail call i32 @png_crc_finish(ptr noundef nonnull %0, i32 noundef %2)
  tail call void @png_chunk_benign_error(ptr noundef nonnull %0, ptr noundef nonnull @.str.5) #12
  br label %61

14:                                               ; preds = %10
  %.not48 = icmp eq ptr %1, null
  br i1 %.not48, label %21, label %15

15:                                               ; preds = %14
  %16 = getelementptr inbounds i8, ptr %1, i64 8
  %17 = load i32, ptr %16, align 8
  %18 = and i32 %17, 2
  %.not49 = icmp eq i32 %18, 0
  br i1 %.not49, label %21, label %19

19:                                               ; preds = %15
  %20 = tail call i32 @png_crc_finish(ptr noundef nonnull %0, i32 noundef %2)
  tail call void @png_chunk_benign_error(ptr noundef nonnull %0, ptr noundef nonnull @.str.8) #12
  br label %61

21:                                               ; preds = %15, %14
  %22 = getelementptr inbounds i8, ptr %0, i64 519
  %23 = load i8, ptr %22, align 1
  %24 = icmp eq i8 %23, 3
  br i1 %24, label %32, label %25

25:                                               ; preds = %21
  %26 = getelementptr inbounds i8, ptr %0, i64 523
  %27 = load i8, ptr %26, align 1
  %28 = zext i8 %27 to i32
  %29 = getelementptr inbounds i8, ptr %0, i64 520
  %30 = load i8, ptr %29, align 8
  %31 = freeze i8 %30
  br label %32

32:                                               ; preds = %21, %25
  %.045 = phi i32 [ %28, %25 ], [ 3, %21 ]
  %.0 = phi i8 [ %31, %25 ], [ 8, %21 ]
  %33 = icmp ne i32 %.045, %2
  %34 = icmp ugt i32 %2, 4
  %or.cond = or i1 %34, %33
  br i1 %or.cond, label %35, label %png_crc_read.exit

35:                                               ; preds = %32
  tail call void @png_chunk_benign_error(ptr noundef nonnull %0, ptr noundef nonnull @.str.6) #12
  %36 = tail call i32 @png_crc_finish(ptr noundef nonnull %0, i32 noundef %2)
  br label %61

png_crc_read.exit:                                ; preds = %32
  %37 = getelementptr inbounds i8, ptr %4, i64 3
  %38 = getelementptr inbounds i8, ptr %4, i64 2
  %39 = getelementptr inbounds i8, ptr %4, i64 1
  %40 = zext nneg i32 %2 to i64
  call void @llvm.memset.p0.i64(ptr noundef nonnull align 1 dereferenceable(4) %4, i8 %.0, i64 4, i1 false)
  call void @png_read_data(ptr noundef nonnull %0, ptr noundef nonnull %4, i64 noundef %40) #12
  call void @png_calculate_crc(ptr noundef nonnull %0, ptr noundef nonnull %4, i64 noundef %40) #12
  %41 = call i32 @png_crc_finish(ptr noundef nonnull %0, i32 noundef 0)
  %.not50 = icmp eq i32 %41, 0
  br i1 %.not50, label %.preheader, label %61

.preheader:                                       ; preds = %png_crc_read.exit
  %.not54 = icmp eq i32 %2, 0
  br i1 %.not54, label %._crit_edge, label %.lr.ph

42:                                               ; preds = %.lr.ph
  %indvars.iv.next = add nuw nsw i64 %indvars.iv, 1
  %exitcond.not = icmp eq i64 %indvars.iv.next, %40
  br i1 %exitcond.not, label %._crit_edge, label %.lr.ph, !llvm.loop !25

.lr.ph:                                           ; preds = %.preheader, %42
  %indvars.iv = phi i64 [ %indvars.iv.next, %42 ], [ 0, %.preheader ]
  %43 = getelementptr inbounds [4 x i8], ptr %4, i64 0, i64 %indvars.iv
  %44 = load i8, ptr %43, align 1
  %45 = add i8 %44, -1
  %or.cond52.not = icmp ult i8 %45, %.0
  br i1 %or.cond52.not, label %42, label %46

46:                                               ; preds = %.lr.ph
  call void @png_chunk_benign_error(ptr noundef %0, ptr noundef nonnull @.str.6) #12
  br label %61

._crit_edge:                                      ; preds = %42, %.preheader
  %47 = load i8, ptr %22, align 1
  %48 = and i8 %47, 2
  %.not51 = icmp eq i8 %48, 0
  %49 = load i8, ptr %4, align 1
  br i1 %.not51, label %53, label %50

50:                                               ; preds = %._crit_edge
  %51 = load i8, ptr %39, align 1
  %52 = load i8, ptr %38, align 1
  br label %55

53:                                               ; preds = %._crit_edge
  %54 = getelementptr inbounds i8, ptr %0, i64 619
  store i8 %49, ptr %54, align 1
  br label %55

55:                                               ; preds = %53, %50
  %.sink59 = phi ptr [ %39, %53 ], [ %37, %50 ]
  %.sink57 = phi i8 [ %49, %53 ], [ %51, %50 ]
  %.sink56 = phi i8 [ %49, %53 ], [ %52, %50 ]
  %56 = load i8, ptr %.sink59, align 1
  %57 = getelementptr inbounds i8, ptr %0, i64 616
  store i8 %49, ptr %57, align 8
  %58 = getelementptr inbounds i8, ptr %0, i64 617
  store i8 %.sink57, ptr %58, align 1
  %59 = getelementptr inbounds i8, ptr %0, i64 618
  store i8 %.sink56, ptr %59, align 2
  %60 = getelementptr inbounds i8, ptr %0, i64 620
  store i8 %56, ptr %60, align 4
  call void @png_set_sBIT(ptr noundef nonnull %0, ptr noundef %1, ptr noundef nonnull %57) #12
  br label %61

61:                                               ; preds = %png_crc_read.exit, %55, %46, %35, %19, %12
  ret void
}